; Function Attrs: nounwind uwtable
define dso_local void @llvm_emit_reduce_float_builtin(ptr noundef %0, i32 noundef %1, ptr noundef %2, ptr nocapture noundef readonly %3) local_unnamed_addr #0 {
.critedge:
  %4 = alloca %struct.BEValue, align 8
  %5 = alloca [2 x ptr], align 16
  %6 = alloca [1 x ptr], align 8
  %7 = getelementptr inbounds i8, ptr %3, i64 40
  %8 = load ptr, ptr %7, align 8
  %9 = getelementptr inbounds i8, ptr %4, i64 16
  %10 = load ptr, ptr %8, align 8
  call void @llvm_emit_expr(ptr noundef %0, ptr noundef nonnull %4, ptr noundef %10) #8
  call void @llvm_value_rvalue(ptr noundef %0, ptr noundef nonnull %4) #8
  %11 = load ptr, ptr %9, align 8
  store ptr %11, ptr %5, align 16
  %12 = getelementptr inbounds i8, ptr %8, i64 8
  %13 = load ptr, ptr %12, align 8
  call void @llvm_emit_expr(ptr noundef %0, ptr noundef nonnull %4, ptr noundef %13) #8
  call void @llvm_value_rvalue(ptr noundef %0, ptr noundef nonnull %4) #8
  %14 = load ptr, ptr %9, align 8
  %15 = getelementptr inbounds i8, ptr %5, i64 8
  store ptr %14, ptr %15, align 8
  %16 = call ptr @LLVMTypeOf(ptr noundef %14) #8
  store ptr %16, ptr %6, align 8
  %17 = call ptr @llvm_emit_call_intrinsic(ptr noundef %0, i32 noundef %1, ptr noundef nonnull %6, i32 noundef 1, ptr noundef nonnull %5, i32 noundef 2) #8
  %18 = load ptr, ptr %3, align 8
  call void @llvm_value_set(ptr noundef %2, ptr noundef %17, ptr noundef %18) #8
  ret void
}